; Function Attrs: mustprogress uwtable
define hidden void @_ZN12mbp_basic_tgC2ER11ast_managerRN3mbp10term_graphER5modelR13obj_hashtableI3appER16expr_sparse_mark(ptr noundef nonnull writeonly align 8 captures(none) dereferenceable(16) initializes((0, 16)) %0, ptr noundef nonnull align 8 dereferenceable(976) %1, ptr noundef nonnull align 8 dereferenceable(244) %2, ptr noundef nonnull align 8 dereferenceable(160) %3, ptr noundef nonnull align 1 %4, ptr noundef nonnull align 8 dereferenceable(24) %5) unnamed_addr #3 align 2 personality ptr @__gxx_personality_v0 {
  store ptr getelementptr inbounds nuw inrange(-16, 48) (i8, ptr @_ZTV12mbp_basic_tg, i64 16), ptr %0, align 8, !tbaa !82
  %7 = tail call noalias noundef ptr @_ZN6memory8allocateEm(i64 noundef 80)
  store ptr %1, ptr %7, align 8, !tbaa !38
  %8 = getelementptr inbounds nuw i8, ptr %7, i64 8
  store ptr %2, ptr %8, align 8, !tbaa !84
  %9 = getelementptr inbounds nuw i8, ptr %7, i64 16
  store ptr %3, ptr %9, align 8, !tbaa !85
  %10 = getelementptr inbounds nuw i8, ptr %7, i64 24
  store ptr %4, ptr %10, align 8, !tbaa !86
  %11 = getelementptr inbounds nuw i8, ptr %7, i64 32
  %12 = ptrtoint ptr %1 to i64
  store i64 %12, ptr %11, align 8, !tbaa !38
  %13 = getelementptr inbounds nuw i8, ptr %7, i64 40
  store ptr null, ptr %13, align 8, !tbaa !87
  %14 = getelementptr inbounds nuw i8, ptr %7, i64 48
  store ptr %5, ptr %14, align 8, !tbaa !88
  %15 = getelementptr inbounds nuw i8, ptr %7, i64 56
  store i64 %12, ptr %15, align 8, !tbaa !38
  %16 = getelementptr inbounds nuw i8, ptr %7, i64 64
  store ptr null, ptr %16, align 8, !tbaa !40
  %17 = getelementptr inbounds nuw i8, ptr %7, i64 72
  store i8 0, ptr %17, align 8, !tbaa !10
  %18 = getelementptr inbounds nuw i8, ptr %0, i64 8
  store ptr %7, ptr %18, align 8, !tbaa !3
  ret void
}